; Function Attrs: nounwind sspstrong uwtable
define hidden i64 @rb_hash_key_str(i64 noundef %0) local_unnamed_addr #0 {
  %2 = inttoptr i64 %0 to ptr
  %3 = load i64, ptr %2, align 8, !tbaa !11
  %4 = and i64 %3, 1024
  %.not = icmp eq i64 %4, 0
  br i1 %.not, label %5, label %12

5:                                                ; preds = %1
  %6 = getelementptr inbounds nuw i8, ptr %2, i64 8
  %7 = load i64, ptr %6, align 8, !tbaa !13
  %8 = load i64, ptr @rb_cString, align 8, !tbaa !7
  %9 = icmp eq i64 %7, %8
  br i1 %9, label %10, label %12

10:                                               ; preds = %5
  %11 = tail call i64 @rb_fstring(i64 noundef %0) #28
  br label %14

12:                                               ; preds = %5, %1
  %13 = tail call i64 @rb_str_new_frozen(i64 noundef %0) #28
  br label %14

14:                                               ; preds = %12, %10
  %.0 = phi i64 [ %13, %12 ], [ %11, %10 ]
  ret i64 %.0
}